target datalayout = "e-m:e-p270:32:32-p271:32:32-p272:64:64-i64:64-i128:128-f80:128-n8:16:32:64-S128"
target triple = "x86_64-pc-linux-gnu"

%"struct.std::array" = type { [2 x i64] }
%"class.folly::Range" = type { ptr, ptr }
%"struct.folly::json::serialization_opts" = type { i8, i8, i8, i8, i32, i8, i8, i8, i8, i8, %"class.folly::Function", i8, i8, i32, i32, i32, i8, i8, i32, %"struct.std::array", [8 x i8] }
%"class.folly::Function" = type { %"union.folly::detail::function::Data", ptr, ptr }
%"union.folly::detail::function::Data" = type { %"struct.folly::detail::function::Data::BigTrivialLayout", [24 x i8] }
%"struct.folly::detail::function::Data::BigTrivialLayout" = type { ptr, i64, i64 }

; Function Attrs: mustprogress nounwind uwtable
define linkonce_odr noundef nonnull align 8 dereferenceable(8) ptr @_ZNSt14__array_traitsImLm2EE6_S_refERA2_Kmm(ptr noundef nonnull align 8 dereferenceable(16) %0, i64 noundef %1) #3 comdat align 2 {
  %3 = alloca ptr, align 8
  %4 = alloca i64, align 8
  store ptr %0, ptr %3, align 8, !tbaa !27
  store i64 %1, ptr %4, align 8, !tbaa !15
  %5 = load ptr, ptr %3, align 8, !tbaa !27
  %6 = load i64, ptr %4, align 8, !tbaa !15
  %7 = getelementptr inbounds nuw [2 x i64], ptr %5, i64 0, i64 %6
  ret ptr %7
}

; Function Attrs: mustprogress nounwind uwtable
define linkonce_odr noundef nonnull align 8 dereferenceable(8) ptr @_ZNKSt5arrayImLm2EEixEm(ptr noundef nonnull align 8 dereferenceable(16) %0, i64 noundef %1) #3 comdat align 2 {
  %3 = alloca ptr, align 8
  %4 = alloca i64, align 8
  store ptr %0, ptr %3, align 8, !tbaa !22
  store i64 %1, ptr %4, align 8, !tbaa !15
  %5 = load ptr, ptr %3, align 8
  %6 = getelementptr inbounds nuw %"struct.std::array", ptr %5, i32 0, i32 0
  %7 = load i64, ptr %4, align 8, !tbaa !15
  %8 = call noundef nonnull align 8 dereferenceable(8) ptr @_ZNSt14__array_traitsImLm2EE6_S_refERA2_Kmm(ptr noundef nonnull align 8 dereferenceable(16) %6, i64 noundef %7) #33
  ret ptr %8
}

; Function Attrs: mustprogress uwtable
define void @_ZN5folly4json12escapeStringENS_5RangeIPKcEERNSt7__cxx1112basic_stringIcSt11char_traitsIcESaIcEEERKNS0_18serialization_optsE(ptr %0, ptr %1, ptr noundef nonnull align 8 dereferenceable(32) %2, ptr noundef nonnull align 16 dereferenceable(120) %3) #0 {
  %5 = alloca %"class.folly::Range", align 8
  %6 = alloca ptr, align 8
  %7 = alloca ptr, align 8
  %8 = alloca %"class.folly::Range", align 8
  %9 = alloca %"class.folly::Range", align 8
  %10 = getelementptr inbounds nuw { ptr, ptr }, ptr %5, i32 0, i32 0
  store ptr %0, ptr %10, align 8
  %11 = getelementptr inbounds nuw { ptr, ptr }, ptr %5, i32 0, i32 1
  store ptr %1, ptr %11, align 8
  store ptr %2, ptr %6, align 8, !tbaa !44
  store ptr %3, ptr %7, align 8, !tbaa !31
  %12 = load ptr, ptr %7, align 8, !tbaa !31
  %13 = getelementptr inbounds nuw %"struct.folly::json::serialization_opts", ptr %12, i32 0, i32 19
  %14 = call noundef nonnull align 8 dereferenceable(8) ptr @_ZNKSt5arrayImLm2EEixEm(ptr noundef nonnull align 8 dereferenceable(16) %13, i64 noundef 0) #33
  %15 = load i64, ptr %14, align 8, !tbaa !15
  %16 = icmp ne i64 %15, 0
  br i1 %16, label %23, label %17

17:                                               ; preds = %4
  %18 = load ptr, ptr %7, align 8, !tbaa !31
  %19 = getelementptr inbounds nuw %"struct.folly::json::serialization_opts", ptr %18, i32 0, i32 19
  %20 = call noundef nonnull align 8 dereferenceable(8) ptr @_ZNKSt5arrayImLm2EEixEm(ptr noundef nonnull align 8 dereferenceable(16) %19, i64 noundef 1) #33
  %21 = load i64, ptr %20, align 8, !tbaa !15
  %22 = icmp ne i64 %21, 0
  br label %23

23:                                               ; preds = %17, %4
  %24 = phi i1 [ true, %4 ], [ %22, %17 ]
  %25 = zext i1 %24 to i64
  %26 = call i64 @llvm.expect.i64(i64 %25, i64 0)
  %27 = icmp ne i64 %26, 0
  br i1 %27, label %28, label %35

28:                                               ; preds = %23
  call void @llvm.memcpy.p0.p0.i64(ptr align 8 %8, ptr align 8 %5, i64 16, i1 false), !tbaa.struct !87
  %29 = load ptr, ptr %6, align 8, !tbaa !44
  %30 = load ptr, ptr %7, align 8, !tbaa !31
  %31 = getelementptr inbounds nuw { ptr, ptr }, ptr %8, i32 0, i32 0
  %32 = load ptr, ptr %31, align 8
  %33 = getelementptr inbounds nuw { ptr, ptr }, ptr %8, i32 0, i32 1
  %34 = load ptr, ptr %33, align 8
  call void @_ZN5folly4json16escapeStringImplILb1EEEvNS_5RangeIPKcEERNSt7__cxx1112basic_stringIcSt11char_traitsIcESaIcEEERKNS0_18serialization_optsE(ptr %32, ptr %34, ptr noundef nonnull align 8 dereferenceable(32) %29, ptr noundef nonnull align 16 dereferenceable(120) %30)
  br label %42

35:                                               ; preds = %23
  call void @llvm.memcpy.p0.p0.i64(ptr align 8 %9, ptr align 8 %5, i64 16, i1 false), !tbaa.struct !87
  %36 = load ptr, ptr %6, align 8, !tbaa !44
  %37 = load ptr, ptr %7, align 8, !tbaa !31
  %38 = getelementptr inbounds nuw { ptr, ptr }, ptr %9, i32 0, i32 0
  %39 = load ptr, ptr %38, align 8
  %40 = getelementptr inbounds nuw { ptr, ptr }, ptr %9, i32 0, i32 1
  %41 = load ptr, ptr %40, align 8
  call void @_ZN5folly4json16escapeStringImplILb0EEEvNS_5RangeIPKcEERNSt7__cxx1112basic_stringIcSt11char_traitsIcESaIcEEERKNS0_18serialization_optsE(ptr %39, ptr %41, ptr noundef nonnull align 8 dereferenceable(32) %36, ptr noundef nonnull align 16 dereferenceable(120) %37)
  br label %42

42:                                               ; preds = %35, %28
  ret void
}