; Function Attrs: mustprogress uwtable
define void @_ZN5folly4json12escapeStringENS_5RangeIPKcEERNSt7__cxx1112basic_stringIcSt11char_traitsIcESaIcEEERKNS0_18serialization_optsE(ptr %0, ptr %1, ptr noundef nonnull align 8 dereferenceable(32) %2, ptr noundef nonnull align 16 dereferenceable(120) %3) local_unnamed_addr #3 {
  %5 = getelementptr inbounds nuw i8, ptr %3, i64 104
  %6 = load i64, ptr %5, align 8, !tbaa !10
  %.not = icmp ne i64 %6, 0
  %7 = getelementptr inbounds nuw i8, ptr %3, i64 112
  %8 = load i64, ptr %7, align 16
  %9 = icmp ne i64 %8, 0
  %or.cond = select i1 %.not, i1 true, i1 %9
  br i1 %or.cond, label %.critedge, label %10, !prof !52

.critedge:                                        ; preds = %4
  tail call void @_ZN5folly4json16escapeStringImplILb1EEEvNS_5RangeIPKcEERNSt7__cxx1112basic_stringIcSt11char_traitsIcESaIcEEERKNS0_18serialization_optsE(ptr %0, ptr %1, ptr noundef nonnull align 8 dereferenceable(32) %2, ptr noundef nonnull align 16 dereferenceable(120) %3)
  br label %11

10:                                               ; preds = %4
  tail call void @_ZN5folly4json16escapeStringImplILb0EEEvNS_5RangeIPKcEERNSt7__cxx1112basic_stringIcSt11char_traitsIcESaIcEEERKNS0_18serialization_optsE(ptr %0, ptr %1, ptr noundef nonnull align 8 dereferenceable(32) %2, ptr noundef nonnull align 16 dereferenceable(120) %3)
  br label %11

11:                                               ; preds = %10, %.critedge
  ret void
}